target datalayout = "e-m:e-p270:32:32-p271:32:32-p272:64:64-i64:64-i128:128-f80:128-n8:16:32:64-S128"
target triple = "x86_64-pc-linux-gnu"

%"struct.duckdb_miniz::mz_zip_archive" = type { i64, i64, i32, i32, i32, i32, i64, ptr, ptr, ptr, ptr, ptr, ptr, ptr, ptr, ptr }
%"struct.duckdb_miniz::mz_zip_internal_state_tag" = type { %"struct.duckdb_miniz::mz_zip_array", %"struct.duckdb_miniz::mz_zip_array", %"struct.duckdb_miniz::mz_zip_array", i32, i32, i32, ptr, i64, ptr, i64, i64 }
%"struct.duckdb_miniz::mz_zip_array" = type { ptr, i64, i64, i32 }

; Function Attrs: alwaysinline mustprogress nounwind uwtable
define internal noundef i32 @_ZN12duckdb_minizL24mz_zip_array_range_checkEPKNS_12mz_zip_arrayEj(ptr noundef %0, i32 noundef %1) #8 {
  %3 = alloca ptr, align 8
  %4 = alloca i32, align 4
  store ptr %0, ptr %3, align 8, !tbaa !19
  store i32 %1, ptr %4, align 4, !tbaa !10
  %5 = load i32, ptr %4, align 4, !tbaa !10
  ret i32 %5
}

; Function Attrs: alwaysinline mustprogress uwtable
define internal noundef ptr @_ZN12duckdb_minizL14mz_zip_get_cdhEPNS_14mz_zip_archiveEj(ptr noundef %0, i32 noundef %1) #9 {
  %3 = alloca ptr, align 8
  %4 = alloca ptr, align 8
  %5 = alloca i32, align 4
  store ptr %0, ptr %4, align 8, !tbaa !19
  store i32 %1, ptr %5, align 4, !tbaa !10
  %6 = load ptr, ptr %4, align 8, !tbaa !19
  %7 = icmp ne ptr %6, null
  br i1 %7, label %8, label %19

8:                                                ; preds = %2
  %9 = load ptr, ptr %4, align 8, !tbaa !19
  %10 = getelementptr inbounds nuw %"struct.duckdb_miniz::mz_zip_archive", ptr %9, i32 0, i32 15
  %11 = load ptr, ptr %10, align 8, !tbaa !227
  %12 = icmp ne ptr %11, null
  br i1 %12, label %13, label %19

13:                                               ; preds = %8
  %14 = load i32, ptr %5, align 4, !tbaa !10
  %15 = load ptr, ptr %4, align 8, !tbaa !19
  %16 = getelementptr inbounds nuw %"struct.duckdb_miniz::mz_zip_archive", ptr %15, i32 0, i32 2
  %17 = load i32, ptr %16, align 8, !tbaa !245
  %18 = icmp uge i32 %14, %17
  br i1 %18, label %19, label %20

19:                                               ; preds = %13, %8, %2
  store ptr null, ptr %3, align 8
  br label %49

20:                                               ; preds = %13
  %21 = load ptr, ptr %4, align 8, !tbaa !19
  %22 = getelementptr inbounds nuw %"struct.duckdb_miniz::mz_zip_archive", ptr %21, i32 0, i32 15
  %23 = load ptr, ptr %22, align 8, !tbaa !227
  %24 = getelementptr inbounds nuw %"struct.duckdb_miniz::mz_zip_internal_state_tag", ptr %23, i32 0, i32 0
  %25 = getelementptr inbounds nuw %"struct.duckdb_miniz::mz_zip_array", ptr %24, i32 0, i32 0
  %26 = load ptr, ptr %25, align 8, !tbaa !255
  %27 = load ptr, ptr %4, align 8, !tbaa !19
  %28 = getelementptr inbounds nuw %"struct.duckdb_miniz::mz_zip_archive", ptr %27, i32 0, i32 15
  %29 = load ptr, ptr %28, align 8, !tbaa !227
  %30 = getelementptr inbounds nuw %"struct.duckdb_miniz::mz_zip_internal_state_tag", ptr %29, i32 0, i32 0
  %31 = load ptr, ptr %4, align 8, !tbaa !19
  %32 = getelementptr inbounds nuw %"struct.duckdb_miniz::mz_zip_archive", ptr %31, i32 0, i32 15
  %33 = load ptr, ptr %32, align 8, !tbaa !227
  %34 = getelementptr inbounds nuw %"struct.duckdb_miniz::mz_zip_internal_state_tag", ptr %33, i32 0, i32 1
  %35 = getelementptr inbounds nuw %"struct.duckdb_miniz::mz_zip_array", ptr %34, i32 0, i32 0
  %36 = load ptr, ptr %35, align 8, !tbaa !256
  %37 = load ptr, ptr %4, align 8, !tbaa !19
  %38 = getelementptr inbounds nuw %"struct.duckdb_miniz::mz_zip_archive", ptr %37, i32 0, i32 15
  %39 = load ptr, ptr %38, align 8, !tbaa !227
  %40 = getelementptr inbounds nuw %"struct.duckdb_miniz::mz_zip_internal_state_tag", ptr %39, i32 0, i32 1
  %41 = load i32, ptr %5, align 4, !tbaa !10
  %42 = call noundef i32 @_ZN12duckdb_minizL24mz_zip_array_range_checkEPKNS_12mz_zip_arrayEj(ptr noundef %40, i32 noundef %41)
  %43 = zext i32 %42 to i64
  %44 = getelementptr inbounds nuw i32, ptr %36, i64 %43
  %45 = load i32, ptr %44, align 4, !tbaa !10
  %46 = call noundef i32 @_ZN12duckdb_minizL24mz_zip_array_range_checkEPKNS_12mz_zip_arrayEj(ptr noundef %30, i32 noundef %45)
  %47 = zext i32 %46 to i64
  %48 = getelementptr inbounds nuw i8, ptr %26, i64 %47
  store ptr %48, ptr %3, align 8
  br label %49

49:                                               ; preds = %20, %19
  %50 = load ptr, ptr %3, align 8
  ret ptr %50
}

; Function Attrs: mustprogress uwtable
define noundef i32 @_ZN12duckdb_miniz23mz_zip_reader_file_statEPNS_14mz_zip_archiveEjPNS_24mz_zip_archive_file_statE(ptr noundef %0, i32 noundef %1, ptr noundef %2) #5 {
  %4 = alloca ptr, align 8
  %5 = alloca i32, align 4
  %6 = alloca ptr, align 8
  store ptr %0, ptr %4, align 8, !tbaa !19
  store i32 %1, ptr %5, align 4, !tbaa !10
  store ptr %2, ptr %6, align 8, !tbaa !19
  %7 = load ptr, ptr %4, align 8, !tbaa !19
  %8 = load i32, ptr %5, align 4, !tbaa !10
  %9 = load ptr, ptr %4, align 8, !tbaa !19
  %10 = load i32, ptr %5, align 4, !tbaa !10
  %11 = call noundef ptr @_ZN12duckdb_minizL14mz_zip_get_cdhEPNS_14mz_zip_archiveEj(ptr noundef %9, i32 noundef %10)
  %12 = load ptr, ptr %6, align 8, !tbaa !19
  %13 = call noundef i32 @_ZN12duckdb_minizL25mz_zip_file_stat_internalEPNS_14mz_zip_archiveEjPKhPNS_24mz_zip_archive_file_statEPi(ptr noundef %7, i32 noundef %8, ptr noundef %11, ptr noundef %12, ptr noundef null)
  ret i32 %13
}