; Function Attrs: mustprogress nofree norecurse nosync nounwind memory(readwrite, inaccessiblemem: none) uwtable
define noundef range(i32 0, 2) i32 @_ZN12duckdb_miniz23mz_zip_reader_file_statEPNS_14mz_zip_archiveEjPNS_24mz_zip_archive_file_statE(ptr noundef captures(address_is_null) %0, i32 noundef %1, ptr noundef captures(address_is_null) %2) local_unnamed_addr #12 {
  %.not.i = icmp eq ptr %0, null
  br i1 %.not.i, label %_ZN12duckdb_minizL14mz_zip_get_cdhEPNS_14mz_zip_archiveEj.exit, label %4

4:                                                ; preds = %3
  %5 = getelementptr inbounds nuw i8, ptr %0, i64 104
  %6 = load ptr, ptr %5, align 8, !tbaa !204
  %.not12.i = icmp eq ptr %6, null
  br i1 %.not12.i, label %_ZN12duckdb_minizL14mz_zip_get_cdhEPNS_14mz_zip_archiveEj.exit, label %7

7:                                                ; preds = %4
  %8 = getelementptr inbounds nuw i8, ptr %0, i64 16
  %9 = load i32, ptr %8, align 8, !tbaa !230
  %.not13.i = icmp ult i32 %1, %9
  br i1 %.not13.i, label %10, label %_ZN12duckdb_minizL14mz_zip_get_cdhEPNS_14mz_zip_archiveEj.exit

10:                                               ; preds = %7
  %11 = load ptr, ptr %6, align 8, !tbaa !235
  %12 = getelementptr inbounds nuw i8, ptr %6, i64 32
  %13 = load ptr, ptr %12, align 8, !tbaa !236
  %14 = zext i32 %1 to i64
  %15 = getelementptr inbounds nuw i32, ptr %13, i64 %14
  %16 = load i32, ptr %15, align 4, !tbaa !10
  %17 = zext i32 %16 to i64
  %18 = getelementptr inbounds nuw i8, ptr %11, i64 %17
  br label %_ZN12duckdb_minizL14mz_zip_get_cdhEPNS_14mz_zip_archiveEj.exit

_ZN12duckdb_minizL14mz_zip_get_cdhEPNS_14mz_zip_archiveEj.exit: ; preds = %3, %4, %7, %10
  %.0.i = phi ptr [ %18, %10 ], [ null, %7 ], [ null, %4 ], [ null, %3 ]
  %19 = tail call fastcc noundef i32 @_ZN12duckdb_minizL25mz_zip_file_stat_internalEPNS_14mz_zip_archiveEjPKhPNS_24mz_zip_archive_file_statEPi(ptr noundef %0, i32 noundef %1, ptr noundef %.0.i, ptr noundef %2, ptr noundef null)
  ret i32 %19
}